; Function Attrs: mustprogress uwtable
define void @_ZN6icu_7717StringTrieBuilder5buildE22UStringTrieBuildOptioniR10UErrorCode(ptr noundef nonnull align 8 dereferenceable(16) %0, i32 noundef %1, i32 noundef %2, ptr noundef nonnull align 4 dereferenceable(4) %3) local_unnamed_addr #2 align 2 {
  %5 = icmp eq i32 %1, 0
  br i1 %5, label %6, label %8

6:                                                ; preds = %4
  %7 = tail call noundef i32 @_ZN6icu_7717StringTrieBuilder9writeNodeEiii(ptr noundef nonnull align 8 dereferenceable(16) %0, i32 noundef 0, i32 noundef %2, i32 noundef 0)
  br label %36

8:                                                ; preds = %4
  %9 = load i32, ptr %3, align 4, !tbaa !12
  %10 = icmp slt i32 %9, 1
  br i1 %10, label %11, label %_ZN6icu_7717StringTrieBuilder20createCompactBuilderEiR10UErrorCode.exit

11:                                               ; preds = %8
  %12 = shl nsw i32 %2, 1
  %13 = tail call ptr @uhash_openSize_77(ptr noundef nonnull @_ZL18hashStringTrieNode8UElement, ptr noundef nonnull @_ZL20equalStringTrieNodes8UElementS_, ptr noundef null, i32 noundef %12, ptr noundef nonnull align 4 dereferenceable(4) %3)
  %14 = getelementptr inbounds nuw i8, ptr %0, i64 8
  store ptr %13, ptr %14, align 8, !tbaa !6
  %15 = load i32, ptr %3, align 4, !tbaa !12
  %16 = icmp sgt i32 %15, 0
  br i1 %16, label %_ZN6icu_7717StringTrieBuilder20createCompactBuilderEiR10UErrorCode.exit, label %17

17:                                               ; preds = %11
  %18 = icmp eq ptr %13, null
  br i1 %18, label %19, label %20

19:                                               ; preds = %17
  store i32 7, ptr %3, align 4, !tbaa !12
  br label %_ZN6icu_7717StringTrieBuilder20createCompactBuilderEiR10UErrorCode.exit

20:                                               ; preds = %17
  %21 = tail call ptr @uhash_setKeyDeleter_77(ptr noundef nonnull %13, ptr noundef nonnull @uprv_deleteUObject_77)
  br label %_ZN6icu_7717StringTrieBuilder20createCompactBuilderEiR10UErrorCode.exit

_ZN6icu_7717StringTrieBuilder20createCompactBuilderEiR10UErrorCode.exit: ; preds = %8, %11, %19, %20
  %22 = tail call noundef ptr @_ZN6icu_7717StringTrieBuilder8makeNodeEiiiR10UErrorCode(ptr noundef nonnull align 8 dereferenceable(16) %0, i32 noundef 0, i32 noundef %2, i32 noundef 0, ptr noundef nonnull align 4 dereferenceable(4) %3)
  %23 = load i32, ptr %3, align 4, !tbaa !12
  %24 = icmp sgt i32 %23, 0
  br i1 %24, label %33, label %25

25:                                               ; preds = %_ZN6icu_7717StringTrieBuilder20createCompactBuilderEiR10UErrorCode.exit
  %26 = load ptr, ptr %22, align 8, !tbaa !3
  %27 = getelementptr inbounds nuw i8, ptr %26, i64 32
  %28 = load ptr, ptr %27, align 8
  %29 = tail call noundef i32 %28(ptr noundef nonnull align 8 dereferenceable(16) %22, i32 noundef -1)
  %30 = load ptr, ptr %22, align 8, !tbaa !3
  %31 = getelementptr inbounds nuw i8, ptr %30, i64 40
  %32 = load ptr, ptr %31, align 8
  tail call void %32(ptr noundef nonnull align 8 dereferenceable(16) %22, ptr noundef nonnull align 8 dereferenceable(16) %0)
  br label %33

33:                                               ; preds = %25, %_ZN6icu_7717StringTrieBuilder20createCompactBuilderEiR10UErrorCode.exit
  %34 = getelementptr inbounds nuw i8, ptr %0, i64 8
  %35 = load ptr, ptr %34, align 8, !tbaa !6
  tail call void @uhash_close_77(ptr noundef %35)
  store ptr null, ptr %34, align 8, !tbaa !6
  br label %36

36:                                               ; preds = %33, %6
  ret void
}